target datalayout = "e-m:e-p270:32:32-p271:32:32-p272:64:64-i64:64-i128:128-f80:128-n8:16:32:64-S128"
target triple = "x86_64-pc-linux-gnu"

%struct._srt_stat_table = type { ptr, ptr, ptr, i32, ptr, ptr, ptr }
%struct._srt_procedure_t = type { i32, %struct._timestat_t, ptr }
%struct._timestat_t = type { i32, i32, i32, %struct.nstime_t, %struct.nstime_t, %struct.nstime_t, double }
%struct.nstime_t = type { i64, i32 }

; Function Attrs: null_pointer_is_valid sspstrong uwtable
define void @free_srt_table_data(ptr noundef %0) #1 {
  %2 = alloca ptr, align 8
  %3 = alloca i32, align 4
  store ptr %0, ptr %2, align 8
  call void @llvm.lifetime.start.p0(i64 4, ptr %3) #11
  store i32 0, ptr %3, align 4
  br label %4

4:                                                ; preds = %26, %1
  %5 = load i32, ptr %3, align 4
  %6 = load ptr, ptr %2, align 8
  %7 = getelementptr inbounds nuw %struct._srt_stat_table, ptr %6, i32 0, i32 3
  %8 = load i32, ptr %7, align 8
  %9 = icmp slt i32 %5, %8
  br i1 %9, label %10, label %29

10:                                               ; preds = %4
  %11 = load ptr, ptr %2, align 8
  %12 = getelementptr inbounds nuw %struct._srt_stat_table, ptr %11, i32 0, i32 5
  %13 = load ptr, ptr %12, align 8
  %14 = load i32, ptr %3, align 4
  %15 = sext i32 %14 to i64
  %16 = getelementptr %struct._srt_procedure_t, ptr %13, i64 %15
  %17 = getelementptr inbounds nuw %struct._srt_procedure_t, ptr %16, i32 0, i32 2
  %18 = load ptr, ptr %17, align 8
  call void @g_free(ptr noundef %18)
  %19 = load ptr, ptr %2, align 8
  %20 = getelementptr inbounds nuw %struct._srt_stat_table, ptr %19, i32 0, i32 5
  %21 = load ptr, ptr %20, align 8
  %22 = load i32, ptr %3, align 4
  %23 = sext i32 %22 to i64
  %24 = getelementptr %struct._srt_procedure_t, ptr %21, i64 %23
  %25 = getelementptr inbounds nuw %struct._srt_procedure_t, ptr %24, i32 0, i32 2
  store ptr null, ptr %25, align 8
  br label %26

26:                                               ; preds = %10
  %27 = load i32, ptr %3, align 4
  %28 = add i32 %27, 1
  store i32 %28, ptr %3, align 4
  br label %4, !llvm.loop !6

29:                                               ; preds = %4
  %30 = load ptr, ptr %2, align 8
  %31 = getelementptr inbounds nuw %struct._srt_stat_table, ptr %30, i32 0, i32 2
  %32 = load ptr, ptr %31, align 8
  call void @g_free(ptr noundef %32)
  %33 = load ptr, ptr %2, align 8
  %34 = getelementptr inbounds nuw %struct._srt_stat_table, ptr %33, i32 0, i32 2
  store ptr null, ptr %34, align 8
  %35 = load ptr, ptr %2, align 8
  %36 = getelementptr inbounds nuw %struct._srt_stat_table, ptr %35, i32 0, i32 5
  %37 = load ptr, ptr %36, align 8
  call void @g_free(ptr noundef %37)
  %38 = load ptr, ptr %2, align 8
  %39 = getelementptr inbounds nuw %struct._srt_stat_table, ptr %38, i32 0, i32 5
  store ptr null, ptr %39, align 8
  %40 = load ptr, ptr %2, align 8
  %41 = getelementptr inbounds nuw %struct._srt_stat_table, ptr %40, i32 0, i32 3
  store i32 0, ptr %41, align 8
  call void @llvm.lifetime.end.p0(i64 4, ptr %3) #11
  ret void
}