; Function Attrs: null_pointer_is_valid sspstrong uwtable
define void @free_srt_table_data(ptr noundef captures(none) %0) local_unnamed_addr #2 {
  %2 = getelementptr inbounds nuw i8, ptr %0, i64 24
  %3 = load i32, ptr %2, align 8
  %4 = icmp sgt i32 %3, 0
  br i1 %4, label %.lr.ph, label %._crit_edge

.lr.ph:                                           ; preds = %1
  %5 = getelementptr inbounds nuw i8, ptr %0, i64 40
  br label %6

6:                                                ; preds = %.lr.ph, %6
  %indvars.iv = phi i64 [ 0, %.lr.ph ], [ %indvars.iv.next, %6 ]
  %7 = load ptr, ptr %5, align 8
  %8 = getelementptr %struct._srt_procedure_t, ptr %7, i64 %indvars.iv, i32 2
  %9 = load ptr, ptr %8, align 8
  tail call void @g_free(ptr noundef %9)
  %10 = load ptr, ptr %5, align 8
  %11 = getelementptr %struct._srt_procedure_t, ptr %10, i64 %indvars.iv, i32 2
  store ptr null, ptr %11, align 8
  %indvars.iv.next = add nuw nsw i64 %indvars.iv, 1
  %12 = load i32, ptr %2, align 8
  %13 = sext i32 %12 to i64
  %14 = icmp slt i64 %indvars.iv.next, %13
  br i1 %14, label %6, label %._crit_edge, !llvm.loop !6

._crit_edge:                                      ; preds = %6, %1
  %15 = getelementptr inbounds nuw i8, ptr %0, i64 16
  %16 = load ptr, ptr %15, align 8
  tail call void @g_free(ptr noundef %16)
  store ptr null, ptr %15, align 8
  %17 = getelementptr inbounds nuw i8, ptr %0, i64 40
  %18 = load ptr, ptr %17, align 8
  tail call void @g_free(ptr noundef %18)
  store ptr null, ptr %17, align 8
  store i32 0, ptr %2, align 8
  ret void
}